target datalayout = "e-m:e-p270:32:32-p271:32:32-p272:64:64-i64:64-i128:128-f80:128-n8:16:32:64-S128"
target triple = "x86_64-unknown-linux-gnu"

%"class.sat::literal" = type { i32 }
%"class.sat::solver" = type { %"class.sat::solver_core", i8, [7 x i8], %"struct.sat::config", %"struct.sat::stats", %class.scoped_ptr, %class.scoped_ptr.0, ptr, %"class.sat::drat", [2 x %"class.sat::clause_allocator"], i8, %class.random_gen, %"class.sat::cleaner", %class.svector.11, %"class.sat::model_converter", i8, %"class.sat::simplifier", %"class.sat::scc", %"class.sat::asymm_branch", %"class.sat::probing", i8, [7 x i8], %"class.sat::mus", %"class.sat::binspr", i8, i8, [6 x i8], %"class.sat::justification", %"class.sat::literal", %class.ptr_vector.20, %class.ptr_vector.20, i32, %class.svector.4, %class.svector.4, %class.svector.4, %class.svector.4, %class.vector.40, %class.svector.11, %class.svector.41, %class.svector.14, %class.svector.14, %class.svector.14, %class.svector.14, %class.svector.14, %class.svector.4, %class.svector.4, i32, %class.svector.26, %class.svector.4, i32, %class.svector.43, %class.svector.43, %class.svector.43, %class.svector.43, %class.svector.43, i32, double, %class.svector.14, %class.svector.14, %class.svector.14, %class.svector.24, i32, i32, i32, i32, i32, i32, %"struct.sat::backoff", i32, i32, %"struct.sat::backoff", %"struct.sat::backoff", %class.var_queue, i32, i32, i32, %class.ema, %class.ema, %class.ema, %class.ema, %class.ema, %class.svector.26, %class.svector.28, %"class.std::__cxx11::basic_string", i8, %class.visit_helper, %class.svector.45, %class.scoped_limit_trail, %class.stopwatch, %class.params_ref, %"struct.sat::no_drat_params", %class.scoped_ptr.38, %class.svector.26, %"class.sat::literal_set", %"class.sat::literal_set", %class.svector.26, i32, i32, i32, i32, i8, ptr, ptr, %class.statistics, i32, i32, i32, i32, i8, i32, i32, i32, i32, i32, i32, i32, double, i32, double, i8, i8, %class.svector.26, i8, %class.svector.43, i32, i32, i32, %class.svector.26, %class.svector.26, %class.svector.24, %class.svector.4, %class.approx_set_tpl, %class.svector.26, %class.svector.26, %class.vector.10, %class.svector.26, %class.svector.36, %class.u_map, %class.svector.26 }
%"class.sat::solver_core" = type { ptr, ptr }
%"struct.sat::config" = type <{ i64, i32, i32, i32, i8, [3 x i8], i32, i32, double, i32, i8, [3 x i8], i32, i8, [3 x i8], i32, [4 x i8], double, double, i32, i32, double, double, i32, [4 x i8], %class.symbol, double, i32, i32, i8, [3 x i8], i32, i32, i8, [3 x i8], i32, i8, [3 x i8], i32, i8, [3 x i8], i32, i8, i8, i8, i8, i32, i8, i8, i8, i8, i8, i8, i8, i8, i32, i8, i8, i8, i8, i32, double, i32, [4 x i8], double, double, double, double, i32, i8, i8, [2 x i8], double, i8, i8, [2 x i8], i32, double, i32, i32, i32, i32, i32, i32, i32, i32, i8, i8, i8, i8, i32, i32, i8, i8, i8, i8, i8, i8, i8, [5 x i8], %class.symbol, i8, i8, i8, i8, i8, i8, [2 x i8], i32, i32, i32, i8, [3 x i8], double, double, double, double, double, i8, [7 x i8] }>
%class.symbol = type { ptr }
%"struct.sat::stats" = type { i32, i32, i32, i32, i32, i32, i32, i32, i32, i32, i32, i32, i32, i32, i32, i32, i32, i32, i32, i32, i32 }
%class.scoped_ptr = type { ptr }
%class.scoped_ptr.0 = type { ptr }
%"class.sat::drat" = type { ptr, %class.svector, ptr, %"class.sat::clause_allocator", ptr, ptr, %class.svector.6, %class.svector.8, %class.vector.10, %class.svector.11, i8, i8, i8, i8, i8, %"struct.sat::drat::stats" }
%class.svector = type { %class.vector }
%class.vector = type { ptr }
%"class.sat::clause_allocator" = type { %class.sat_allocator, %class.id_gen }
%class.sat_allocator = type { ptr, i64, %class.ptr_vector, ptr, [65 x %class.ptr_vector.2] }
%class.ptr_vector = type { %class.vector.1 }
%class.vector.1 = type { ptr }
%class.ptr_vector.2 = type { %class.vector.3 }
%class.vector.3 = type { ptr }
%class.id_gen = type { i32, %class.svector.4 }
%class.svector.6 = type { %class.vector.7 }
%class.vector.7 = type { ptr }
%class.svector.8 = type { %class.vector.9 }
%class.vector.9 = type { ptr }
%"struct.sat::drat::stats" = type { i32, i32, i32, i32 }
%class.random_gen = type { i32 }
%"class.sat::cleaner" = type { ptr, i32, i32, i32, i32 }
%"class.sat::model_converter" = type { %class.vector.13, i32, %class.svector.14, ptr, %class.svector.16 }
%class.vector.13 = type { ptr }
%class.svector.16 = type { %class.vector.17 }
%class.vector.17 = type { ptr }
%"class.sat::simplifier" = type { ptr, i32, %"class.sat::use_list", %"class.sat::ext_use_list", %"class.sat::clause_set", %class.svector.22, i32, %class.tracked_uint_set, i8, %"class.sat::tmp_clause", %class.svector.24, i32, i32, i8, i8, i8, i8, i32, i8, i8, i32, i8, i32, i8, i8, i32, i32, i32, i32, i32, i32, i32, i32, i32, i32, i8, i32, i8, i8, i32, i32, i32, i32, i32, i32, i32, i32, i32, i32, i32, i8, i32, %class.ptr_vector.20, %class.svector.26, %class.svector.28, %class.svector.28, %class.svector.26 }
%"class.sat::use_list" = type { %class.vector.18 }
%class.vector.18 = type { ptr }
%"class.sat::ext_use_list" = type { %class.vector.19 }
%class.vector.19 = type { ptr }
%"class.sat::clause_set" = type { %class.svector.4, %class.ptr_vector.20 }
%class.svector.22 = type { %class.vector.23 }
%class.vector.23 = type { ptr }
%class.tracked_uint_set = type { %class.svector.24, %class.svector.4 }
%"class.sat::tmp_clause" = type { ptr }
%"class.sat::scc" = type { ptr, i8, i8, i32, i32, %"class.sat::big" }
%"class.sat::big" = type { ptr, i32, %class.vector.30, %class.svector.14, %class.svector.31, %class.svector.31, %class.svector.26, %class.svector.26, i8, i8, %class.vector.30 }
%class.svector.31 = type { %class.vector.32 }
%class.vector.32 = type { ptr }
%class.vector.30 = type { ptr }
%"class.sat::asymm_branch" = type { ptr, %class.params_ref, i64, %class.random_gen, i32, i32, i8, i32, i32, i8, i8, i64, i32, i32, i32, %class.svector.26, %class.svector.26, %class.svector.33, %class.svector.33, %class.svector.26, %class.svector.26 }
%class.svector.33 = type { %class.vector.34 }
%class.vector.34 = type { ptr }
%"class.sat::probing" = type { ptr, i32, %"class.sat::literal_set", %class.svector.26, i32, i8, i32, i8, i8, i64, i32, %class.vector.35, %class.svector.36, %"class.sat::big" }
%class.vector.35 = type { ptr }
%"class.sat::mus" = type <{ ptr, %class.svector.26, %class.svector.26, i8, [7 x i8], %class.svector.11, i32, [4 x i8] }>
%"class.sat::binspr" = type <{ ptr, %class.scoped_ptr.38, i32, i32, %class.vector.39, i32, i32, %class.svector.14, %class.svector.14, %class.svector.26, %class.svector.26, i32, i32, i32, i32, i32, [4 x i32], [5 x i32], [5 x i32], [4 x i8] }>
%class.vector.39 = type { ptr }
%"class.sat::justification" = type <{ i32, [4 x i8], i64, i32, [4 x i8] }>
%class.ptr_vector.20 = type { %class.vector.21 }
%class.vector.21 = type { ptr }
%class.vector.40 = type { ptr }
%class.svector.11 = type { %class.vector.12 }
%class.vector.12 = type { ptr }
%class.svector.41 = type { %class.vector.42 }
%class.vector.42 = type { ptr }
%class.svector.14 = type { %class.vector.15 }
%class.vector.15 = type { ptr }
%"struct.sat::backoff" = type { i32, i32, i32, i32, i32 }
%class.var_queue = type { %class.heap }
%class.heap = type { %"struct.var_queue<svector<unsigned int>>::lt", %class.svector.31, %class.svector.31 }
%"struct.var_queue<svector<unsigned int>>::lt" = type { ptr }
%class.ema = type { double, double, double, i32, i32 }
%class.svector.28 = type { %class.vector.29 }
%class.vector.29 = type { ptr }
%"class.std::__cxx11::basic_string" = type { %"struct.std::__cxx11::basic_string<char>::_Alloc_hider", i64, %union.anon }
%"struct.std::__cxx11::basic_string<char>::_Alloc_hider" = type { ptr }
%union.anon = type { i64, [8 x i8] }
%class.visit_helper = type { %class.svector.4, i32, i32 }
%class.svector.45 = type { %class.vector.46 }
%class.vector.46 = type { ptr }
%class.scoped_limit_trail = type { %class.svector.4, i32, i32 }
%class.stopwatch = type <{ %"class.std::chrono::time_point", %"class.std::chrono::duration", i8, [7 x i8] }>
%"class.std::chrono::time_point" = type { %"class.std::chrono::duration" }
%"class.std::chrono::duration" = type { i64 }
%class.params_ref = type { ptr }
%"struct.sat::no_drat_params" = type { %class.params_ref }
%class.scoped_ptr.38 = type { ptr }
%"class.sat::literal_set" = type { %class.tracked_uint_set }
%class.statistics = type { %class.svector.47, %class.svector.49 }
%class.svector.47 = type { %class.vector.48 }
%class.vector.48 = type { ptr }
%class.svector.49 = type { %class.vector.50 }
%class.vector.50 = type { ptr }
%class.svector.43 = type { %class.vector.44 }
%class.vector.44 = type { ptr }
%class.svector.24 = type { %class.vector.25 }
%class.vector.25 = type { ptr }
%class.svector.4 = type { %class.vector.5 }
%class.vector.5 = type { ptr }
%class.approx_set_tpl = type { i32 }
%class.vector.10 = type { ptr }
%class.svector.36 = type { %class.vector.37 }
%class.vector.37 = type { ptr }
%class.u_map = type { %class.map }
%class.map = type { %class.table2map }
%class.table2map = type { %class.core_hashtable }
%class.core_hashtable = type <{ ptr, i32, i32, i32, [4 x i8] }>
%class.svector.26 = type { %class.vector.27 }
%class.vector.27 = type { ptr }

; Function Attrs: mustprogress nounwind uwtable
define linkonce_odr hidden noundef nonnull align 4 dereferenceable(4) ptr @_ZNK6vectorI5lboolLb0EjEixEj(ptr noundef nonnull align 8 dereferenceable(8) %this, i32 noundef %idx) #4 comdat align 2 {
entry:
  %this.addr = alloca ptr, align 8
  %idx.addr = alloca i32, align 4
  store ptr %this, ptr %this.addr, align 8
  store i32 %idx, ptr %idx.addr, align 4
  %this1 = load ptr, ptr %this.addr, align 8
  %m_data = getelementptr inbounds %class.vector.12, ptr %this1, i32 0, i32 0
  %0 = load ptr, ptr %m_data, align 8
  %1 = load i32, ptr %idx.addr, align 4
  %idxprom = zext i32 %1 to i64
  %arrayidx = getelementptr inbounds i32, ptr %0, i64 %idxprom
  ret ptr %arrayidx
}

; Function Attrs: mustprogress nounwind uwtable
define linkonce_odr hidden noundef i32 @_ZNK3sat7literal5indexEv(ptr noundef nonnull align 4 dereferenceable(4) %this) #4 comdat align 2 {
entry:
  %this.addr = alloca ptr, align 8
  store ptr %this, ptr %this.addr, align 8
  %this1 = load ptr, ptr %this.addr, align 8
  %m_val = getelementptr inbounds %"class.sat::literal", ptr %this1, i32 0, i32 0
  %0 = load i32, ptr %m_val, align 4
  ret i32 %0
}

; Function Attrs: mustprogress nounwind uwtable
define linkonce_odr hidden void @_ZN3sat7literalC2Ejb(ptr noundef nonnull align 4 dereferenceable(4) %this, i32 noundef %v, i1 noundef zeroext %_sign) unnamed_addr #4 comdat align 2 {
entry:
  %this.addr = alloca ptr, align 8
  %v.addr = alloca i32, align 4
  %_sign.addr = alloca i8, align 1
  store ptr %this, ptr %this.addr, align 8
  store i32 %v, ptr %v.addr, align 4
  %frombool = zext i1 %_sign to i8
  store i8 %frombool, ptr %_sign.addr, align 1
  %this1 = load ptr, ptr %this.addr, align 8
  %m_val = getelementptr inbounds %"class.sat::literal", ptr %this1, i32 0, i32 0
  %0 = load i32, ptr %v.addr, align 4
  %shl = shl i32 %0, 1
  %1 = load i8, ptr %_sign.addr, align 1
  %tobool = trunc i8 %1 to i1
  %conv = zext i1 %tobool to i32
  %add = add i32 %shl, %conv
  store i32 %add, ptr %m_val, align 4
  ret void
}

; Function Attrs: mustprogress nounwind uwtable
define linkonce_odr hidden noundef nonnull align 1 dereferenceable(1) ptr @_ZNK6vectorIbLb0EjEixEj(ptr noundef nonnull align 8 dereferenceable(8) %this, i32 noundef %idx) #4 comdat align 2 {
entry:
  %this.addr = alloca ptr, align 8
  %idx.addr = alloca i32, align 4
  store ptr %this, ptr %this.addr, align 8
  store i32 %idx, ptr %idx.addr, align 4
  %this1 = load ptr, ptr %this.addr, align 8
  %m_data = getelementptr inbounds %class.vector.15, ptr %this1, i32 0, i32 0
  %0 = load ptr, ptr %m_data, align 8
  %1 = load i32, ptr %idx.addr, align 4
  %idxprom = zext i32 %1 to i64
  %arrayidx = getelementptr inbounds i8, ptr %0, i64 %idxprom
  ret ptr %arrayidx
}

; Function Attrs: mustprogress uwtable
define linkonce_odr hidden noundef i32 @_ZNK3sat6solver5valueEj(ptr noundef nonnull align 8 dereferenceable(4408) %this, i32 noundef %v) #5 comdat align 2 {
entry:
  %this.addr = alloca ptr, align 8
  %v.addr = alloca i32, align 4
  %ref.tmp = alloca %"class.sat::literal", align 4
  store ptr %this, ptr %this.addr, align 8
  store i32 %v, ptr %v.addr, align 4
  %this1 = load ptr, ptr %this.addr, align 8
  %m_assignment = getelementptr inbounds %"class.sat::solver", ptr %this1, i32 0, i32 37
  %0 = load i32, ptr %v.addr, align 4
  call void @_ZN3sat7literalC2Ejb(ptr noundef nonnull align 4 dereferenceable(4) %ref.tmp, i32 noundef %0, i1 noundef zeroext false)
  %call = call noundef i32 @_ZNK3sat7literal5indexEv(ptr noundef nonnull align 4 dereferenceable(4) %ref.tmp)
  %call2 = call noundef nonnull align 4 dereferenceable(4) ptr @_ZNK6vectorI5lboolLb0EjEixEj(ptr noundef nonnull align 8 dereferenceable(8) %m_assignment, i32 noundef %call)
  %1 = load i32, ptr %call2, align 4
  ret i32 %1
}

; Function Attrs: mustprogress uwtable
define linkonce_odr hidden noundef zeroext i1 @_ZNK3sat6solver14was_eliminatedEj(ptr noundef nonnull align 8 dereferenceable(4408) %this, i32 noundef %v) #5 comdat align 2 {
entry:
  %this.addr = alloca ptr, align 8
  %v.addr = alloca i32, align 4
  store ptr %this, ptr %this.addr, align 8
  store i32 %v, ptr %v.addr, align 4
  %this1 = load ptr, ptr %this.addr, align 8
  %m_eliminated = getelementptr inbounds %"class.sat::solver", ptr %this1, i32 0, i32 42
  %0 = load i32, ptr %v.addr, align 4
  %call = call noundef nonnull align 1 dereferenceable(1) ptr @_ZNK6vectorIbLb0EjEixEj(ptr noundef nonnull align 8 dereferenceable(8) %m_eliminated, i32 noundef %0)
  %1 = load i8, ptr %call, align 1
  %tobool = trunc i8 %1 to i1
  ret i1 %tobool
}

; Function Attrs: mustprogress nounwind uwtable
define linkonce_odr hidden noundef nonnull align 4 dereferenceable(4) ptr @_ZN6vectorIjLb0EjEixEj(ptr noundef nonnull align 8 dereferenceable(8) %this, i32 noundef %idx) #4 comdat align 2 {
entry:
  %this.addr = alloca ptr, align 8
  %idx.addr = alloca i32, align 4
  store ptr %this, ptr %this.addr, align 8
  store i32 %idx, ptr %idx.addr, align 4
  %this1 = load ptr, ptr %this.addr, align 8
  %m_data = getelementptr inbounds %class.vector.5, ptr %this1, i32 0, i32 0
  %0 = load ptr, ptr %m_data, align 8
  %1 = load i32, ptr %idx.addr, align 4
  %idxprom = zext i32 %1 to i64
  %arrayidx = getelementptr inbounds i32, ptr %0, i64 %idxprom
  ret ptr %arrayidx
}

; Function Attrs: mustprogress uwtable
define hidden void @_ZN3sat6solver12set_activityEjj(ptr noundef nonnull align 8 dereferenceable(4408) %this, i32 noundef %v, i32 noundef %new_act) #5 align 2 {
entry:
  %this.addr = alloca ptr, align 8
  %v.addr = alloca i32, align 4
  %new_act.addr = alloca i32, align 4
  %old_act = alloca i32, align 4
  store ptr %this, ptr %this.addr, align 8
  store i32 %v, ptr %v.addr, align 4
  store i32 %new_act, ptr %new_act.addr, align 4
  %this1 = load ptr, ptr %this.addr, align 8
  %m_activity = getelementptr inbounds %"class.sat::solver", ptr %this1, i32 0, i32 48
  %0 = load i32, ptr %v.addr, align 4
  %call = call noundef nonnull align 4 dereferenceable(4) ptr @_ZN6vectorIjLb0EjEixEj(ptr noundef nonnull align 8 dereferenceable(8) %m_activity, i32 noundef %0)
  %1 = load i32, ptr %call, align 4
  store i32 %1, ptr %old_act, align 4
  %2 = load i32, ptr %new_act.addr, align 4
  %m_activity2 = getelementptr inbounds %"class.sat::solver", ptr %this1, i32 0, i32 48
  %3 = load i32, ptr %v.addr, align 4
  %call3 = call noundef nonnull align 4 dereferenceable(4) ptr @_ZN6vectorIjLb0EjEixEj(ptr noundef nonnull align 8 dereferenceable(8) %m_activity2, i32 noundef %3)
  store i32 %2, ptr %call3, align 4
  %4 = load i32, ptr %v.addr, align 4
  %call4 = call noundef zeroext i1 @_ZNK3sat6solver14was_eliminatedEj(ptr noundef nonnull align 8 dereferenceable(4408) %this1, i32 noundef %4)
  br i1 %call4, label %if.end, label %land.lhs.true

land.lhs.true:                                    ; preds = %entry
  %5 = load i32, ptr %v.addr, align 4
  %call5 = call noundef i32 @_ZNK3sat6solver5valueEj(ptr noundef nonnull align 8 dereferenceable(4408) %this1, i32 noundef %5)
  %cmp = icmp eq i32 %call5, 0
  br i1 %cmp, label %land.lhs.true6, label %if.end

land.lhs.true6:                                   ; preds = %land.lhs.true
  %6 = load i32, ptr %new_act.addr, align 4
  %7 = load i32, ptr %old_act, align 4
  %cmp7 = icmp ne i32 %6, %7
  br i1 %cmp7, label %if.then, label %if.end

if.then:                                          ; preds = %land.lhs.true6
  %m_case_split_queue = getelementptr inbounds %"class.sat::solver", ptr %this1, i32 0, i32 72
  %8 = load i32, ptr %v.addr, align 4
  %9 = load i32, ptr %new_act.addr, align 4
  %10 = load i32, ptr %old_act, align 4
  %cmp8 = icmp ugt i32 %9, %10
  call void @_ZN9var_queueI7svectorIjjEE19activity_changed_ehEjb(ptr noundef nonnull align 8 dereferenceable(24) %m_case_split_queue, i32 noundef %8, i1 noundef zeroext %cmp8)
  br label %if.end

if.end:                                           ; preds = %if.then, %land.lhs.true6, %land.lhs.true, %entry
  ret void
}