; Function Attrs: mustprogress uwtable
define hidden void @_ZN3sat6solver12set_activityEjj(ptr noundef nonnull align 8 dereferenceable(4408) %this, i32 noundef %v, i32 noundef %new_act) local_unnamed_addr #3 align 2 {
entry:
  %m_activity = getelementptr inbounds i8, ptr %this, i64 3528
  %0 = load ptr, ptr %m_activity, align 8
  %idxprom.i = zext i32 %v to i64
  %arrayidx.i = getelementptr inbounds i32, ptr %0, i64 %idxprom.i
  %1 = load i32, ptr %arrayidx.i, align 4
  store i32 %new_act, ptr %arrayidx.i, align 4
  %m_eliminated.i = getelementptr inbounds i8, ptr %this, i64 3480
  %2 = load ptr, ptr %m_eliminated.i, align 8
  %arrayidx.i.i = getelementptr inbounds i8, ptr %2, i64 %idxprom.i
  %3 = load i8, ptr %arrayidx.i.i, align 1
  %4 = and i8 %3, 1
  %tobool.i.not = icmp eq i8 %4, 0
  br i1 %tobool.i.not, label %land.lhs.true, label %if.end

land.lhs.true:                                    ; preds = %entry
  %m_assignment.i = getelementptr inbounds i8, ptr %this, i64 3440
  %shl.i.i = shl i32 %v, 1
  %5 = load ptr, ptr %m_assignment.i, align 8
  %idxprom.i.i10 = zext i32 %shl.i.i to i64
  %arrayidx.i.i11 = getelementptr inbounds i32, ptr %5, i64 %idxprom.i.i10
  %6 = load i32, ptr %arrayidx.i.i11, align 4
  %cmp = icmp ne i32 %6, 0
  %cmp7.not = icmp eq i32 %1, %new_act
  %or.cond = select i1 %cmp, i1 true, i1 %cmp7.not
  br i1 %or.cond, label %if.end, label %if.then

if.then:                                          ; preds = %land.lhs.true
  %m_case_split_queue = getelementptr inbounds i8, ptr %this, i64 3728
  %cmp8 = icmp ult i32 %1, %new_act
  tail call void @_ZN9var_queueI7svectorIjjEE19activity_changed_ehEjb(ptr noundef nonnull align 8 dereferenceable(24) %m_case_split_queue, i32 noundef %v, i1 noundef zeroext %cmp8)
  br label %if.end

if.end:                                           ; preds = %if.then, %land.lhs.true, %entry
  ret void
}